target datalayout = "e-m:e-p270:32:32-p271:32:32-p272:64:64-i64:64-i128:128-f80:128-n8:16:32:64-S128"
target triple = "x86_64-pc-linux-gnu"

%"class.std::__cxx11::basic_string" = type { %"struct.std::__cxx11::basic_string<char>::_Alloc_hider", i64, %union.anon }
%"struct.std::__cxx11::basic_string<char>::_Alloc_hider" = type { ptr }
%union.anon = type { i64, [8 x i8] }
%"struct.faiss::Index" = type <{ ptr, i32, [4 x i8], i64, i8, i8, [2 x i8], i32, float, [4 x i8] }>

@.str = private unnamed_addr constant [19 x i8] c"Error: '%s' failed\00", align 1
@.str.2 = private unnamed_addr constant [113 x i8] c"generated/home/dtcxzyw/WorkSpace/Projects/compilers/llvm-opt-benchmark/bench/faiss/faiss/faiss/IndexFastScan.cpp\00", align 1
@_ZTIN5faiss14FaissExceptionE = external constant ptr
@.str.14 = private unnamed_addr constant [63 x i8] c"Error: '%s' failed: search params not supported for this index\00", align 1
@.str.15 = private unnamed_addr constant [8 x i8] c"!params\00", align 1
@__PRETTY_FUNCTION__._ZNK5faiss13IndexFastScan6searchElPKflPfPlPKNS_16SearchParametersE = private unnamed_addr constant [121 x i8] c"virtual void faiss::IndexFastScan::search(idx_t, const float *, idx_t, float *, idx_t *, const SearchParameters *) const\00", align 1
@.str.16 = private unnamed_addr constant [6 x i8] c"k > 0\00", align 1

; Function Attrs: mustprogress uwtable
define void @_ZNK5faiss13IndexFastScan6searchElPKflPfPlPKNS_16SearchParametersE(ptr noundef nonnull align 8 dereferenceable(136) %0, i64 noundef %1, ptr noundef %2, i64 noundef %3, ptr noundef %4, ptr noundef %5, ptr noundef %6) unnamed_addr #2 align 2 personality ptr @__gxx_personality_v0 {
  %8 = alloca ptr, align 8
  %9 = alloca i64, align 8
  %10 = alloca ptr, align 8
  %11 = alloca i64, align 8
  %12 = alloca ptr, align 8
  %13 = alloca ptr, align 8
  %14 = alloca ptr, align 8
  %15 = alloca %"class.std::__cxx11::basic_string", align 8
  %16 = alloca i32, align 4
  %17 = alloca ptr, align 8
  %18 = alloca i32, align 4
  %19 = alloca %"class.std::__cxx11::basic_string", align 8
  %20 = alloca i32, align 4
  store ptr %0, ptr %8, align 8
  store i64 %1, ptr %9, align 8
  store ptr %2, ptr %10, align 8
  store i64 %3, ptr %11, align 8
  store ptr %4, ptr %12, align 8
  store ptr %5, ptr %13, align 8
  store ptr %6, ptr %14, align 8
  %21 = load ptr, ptr %8, align 8
  br label %22

22:                                               ; preds = %7
  %23 = load ptr, ptr %14, align 8
  %24 = icmp ne ptr %23, null
  br i1 %24, label %25, label %48

25:                                               ; preds = %22
  br label %26

26:                                               ; preds = %25
  call void @_ZNSt7__cxx1112basic_stringIcSt11char_traitsIcESaIcEEC1Ev(ptr noundef nonnull align 8 dereferenceable(32) %15) #13
  %27 = call i32 (ptr, i64, ptr, ...) @snprintf(ptr noundef null, i64 noundef 0, ptr noundef @.str.14, ptr noundef @.str.15) #13
  store i32 %27, ptr %16, align 4
  %28 = load i32, ptr %16, align 4
  %29 = add nsw i32 %28, 1
  %30 = sext i32 %29 to i64
  invoke void @_ZNSt7__cxx1112basic_stringIcSt11char_traitsIcESaIcEE6resizeEm(ptr noundef nonnull align 8 dereferenceable(32) %15, i64 noundef %30)
          to label %31 unwind label %38

31:                                               ; preds = %26
  %32 = invoke noundef nonnull align 1 dereferenceable(1) ptr @_ZNSt7__cxx1112basic_stringIcSt11char_traitsIcESaIcEEixEm(ptr noundef nonnull align 8 dereferenceable(32) %15, i64 noundef 0)
          to label %33 unwind label %38

33:                                               ; preds = %31
  %34 = call noundef i64 @_ZNKSt7__cxx1112basic_stringIcSt11char_traitsIcESaIcEE4sizeEv(ptr noundef nonnull align 8 dereferenceable(32) %15) #13
  %35 = call i32 (ptr, i64, ptr, ...) @snprintf(ptr noundef %32, i64 noundef %34, ptr noundef @.str.14, ptr noundef @.str.15) #13
  %36 = call ptr @__cxa_allocate_exception(i64 40) #13
  invoke void @_ZN5faiss14FaissExceptionC1ERKNSt7__cxx1112basic_stringIcSt11char_traitsIcESaIcEEEPKcSA_i(ptr noundef nonnull align 8 dereferenceable(40) %36, ptr noundef nonnull align 8 dereferenceable(32) %15, ptr noundef @__PRETTY_FUNCTION__._ZNK5faiss13IndexFastScan6searchElPKflPfPlPKNS_16SearchParametersE, ptr noundef @.str.2, i32 noundef 265)
          to label %37 unwind label %42

37:                                               ; preds = %33
  invoke void @__cxa_throw(ptr %36, ptr @_ZTIN5faiss14FaissExceptionE, ptr @_ZN5faiss14FaissExceptionD2Ev) #17
          to label %99 unwind label %38

38:                                               ; preds = %37, %31, %26
  %39 = landingpad { ptr, i32 }
          cleanup
  %40 = extractvalue { ptr, i32 } %39, 0
  store ptr %40, ptr %17, align 8
  %41 = extractvalue { ptr, i32 } %39, 1
  store i32 %41, ptr %18, align 4
  br label %46

42:                                               ; preds = %33
  %43 = landingpad { ptr, i32 }
          cleanup
  %44 = extractvalue { ptr, i32 } %43, 0
  store ptr %44, ptr %17, align 8
  %45 = extractvalue { ptr, i32 } %43, 1
  store i32 %45, ptr %18, align 4
  call void @__cxa_free_exception(ptr %36) #13
  br label %46

46:                                               ; preds = %42, %38
  call void @_ZNSt7__cxx1112basic_stringIcSt11char_traitsIcESaIcEED1Ev(ptr noundef nonnull align 8 dereferenceable(32) %15) #13
  br label %94

47:                                               ; No predecessors!
  br label %48

48:                                               ; preds = %47, %22
  br label %49

49:                                               ; preds = %48
  br label %50

50:                                               ; preds = %49
  %51 = load i64, ptr %11, align 8
  %52 = icmp sgt i64 %51, 0
  br i1 %52, label %76, label %53

53:                                               ; preds = %50
  br label %54

54:                                               ; preds = %53
  call void @_ZNSt7__cxx1112basic_stringIcSt11char_traitsIcESaIcEEC1Ev(ptr noundef nonnull align 8 dereferenceable(32) %19) #13
  %55 = call i32 (ptr, i64, ptr, ...) @snprintf(ptr noundef null, i64 noundef 0, ptr noundef @.str, ptr noundef @.str.16) #13
  store i32 %55, ptr %20, align 4
  %56 = load i32, ptr %20, align 4
  %57 = add nsw i32 %56, 1
  %58 = sext i32 %57 to i64
  invoke void @_ZNSt7__cxx1112basic_stringIcSt11char_traitsIcESaIcEE6resizeEm(ptr noundef nonnull align 8 dereferenceable(32) %19, i64 noundef %58)
          to label %59 unwind label %66

59:                                               ; preds = %54
  %60 = invoke noundef nonnull align 1 dereferenceable(1) ptr @_ZNSt7__cxx1112basic_stringIcSt11char_traitsIcESaIcEEixEm(ptr noundef nonnull align 8 dereferenceable(32) %19, i64 noundef 0)
          to label %61 unwind label %66

61:                                               ; preds = %59
  %62 = call noundef i64 @_ZNKSt7__cxx1112basic_stringIcSt11char_traitsIcESaIcEE4sizeEv(ptr noundef nonnull align 8 dereferenceable(32) %19) #13
  %63 = call i32 (ptr, i64, ptr, ...) @snprintf(ptr noundef %60, i64 noundef %62, ptr noundef @.str, ptr noundef @.str.16) #13
  %64 = call ptr @__cxa_allocate_exception(i64 40) #13
  invoke void @_ZN5faiss14FaissExceptionC1ERKNSt7__cxx1112basic_stringIcSt11char_traitsIcESaIcEEEPKcSA_i(ptr noundef nonnull align 8 dereferenceable(40) %64, ptr noundef nonnull align 8 dereferenceable(32) %19, ptr noundef @__PRETTY_FUNCTION__._ZNK5faiss13IndexFastScan6searchElPKflPfPlPKNS_16SearchParametersE, ptr noundef @.str.2, i32 noundef 266)
          to label %65 unwind label %70

65:                                               ; preds = %61
  invoke void @__cxa_throw(ptr %64, ptr @_ZTIN5faiss14FaissExceptionE, ptr @_ZN5faiss14FaissExceptionD2Ev) #17
          to label %99 unwind label %66

66:                                               ; preds = %65, %59, %54
  %67 = landingpad { ptr, i32 }
          cleanup
  %68 = extractvalue { ptr, i32 } %67, 0
  store ptr %68, ptr %17, align 8
  %69 = extractvalue { ptr, i32 } %67, 1
  store i32 %69, ptr %18, align 4
  br label %74

70:                                               ; preds = %61
  %71 = landingpad { ptr, i32 }
          cleanup
  %72 = extractvalue { ptr, i32 } %71, 0
  store ptr %72, ptr %17, align 8
  %73 = extractvalue { ptr, i32 } %71, 1
  store i32 %73, ptr %18, align 4
  call void @__cxa_free_exception(ptr %64) #13
  br label %74

74:                                               ; preds = %70, %66
  call void @_ZNSt7__cxx1112basic_stringIcSt11char_traitsIcESaIcEED1Ev(ptr noundef nonnull align 8 dereferenceable(32) %19) #13
  br label %94

75:                                               ; No predecessors!
  br label %76

76:                                               ; preds = %75, %50
  br label %77

77:                                               ; preds = %76
  %78 = getelementptr inbounds %"struct.faiss::Index", ptr %21, i32 0, i32 7
  %79 = load i32, ptr %78, align 4
  %80 = icmp eq i32 %79, 1
  br i1 %80, label %81, label %87

81:                                               ; preds = %77
  %82 = load i64, ptr %9, align 8
  %83 = load ptr, ptr %10, align 8
  %84 = load i64, ptr %11, align 8
  %85 = load ptr, ptr %12, align 8
  %86 = load ptr, ptr %13, align 8
  call void @_ZNK5faiss13IndexFastScan22search_dispatch_implemILb1EEEvlPKflPfPlPKNS_15NormTableScalerE(ptr noundef nonnull align 8 dereferenceable(136) %21, i64 noundef %82, ptr noundef %83, i64 noundef %84, ptr noundef %85, ptr noundef %86, ptr noundef null)
  br label %93

87:                                               ; preds = %77
  %88 = load i64, ptr %9, align 8
  %89 = load ptr, ptr %10, align 8
  %90 = load i64, ptr %11, align 8
  %91 = load ptr, ptr %12, align 8
  %92 = load ptr, ptr %13, align 8
  call void @_ZNK5faiss13IndexFastScan22search_dispatch_implemILb0EEEvlPKflPfPlPKNS_15NormTableScalerE(ptr noundef nonnull align 8 dereferenceable(136) %21, i64 noundef %88, ptr noundef %89, i64 noundef %90, ptr noundef %91, ptr noundef %92, ptr noundef null)
  br label %93

93:                                               ; preds = %87, %81
  ret void

94:                                               ; preds = %74, %46
  %95 = load ptr, ptr %17, align 8
  %96 = load i32, ptr %18, align 4
  %97 = insertvalue { ptr, i32 } poison, ptr %95, 0
  %98 = insertvalue { ptr, i32 } %97, i32 %96, 1
  resume { ptr, i32 } %98

99:                                               ; preds = %65, %37
  unreachable
}