; Function Attrs: mustprogress uwtable
define void @_ZNK5faiss13IndexFastScan6searchElPKflPfPlPKNS_16SearchParametersE(ptr noundef nonnull align 8 dereferenceable(136) %0, i64 noundef %1, ptr noundef %2, i64 noundef %3, ptr noundef %4, ptr noundef %5, ptr noundef readnone %6) unnamed_addr #2 align 2 personality ptr @__gxx_personality_v0 {
  %8 = alloca %"class.std::__cxx11::basic_string", align 8
  %9 = alloca %"class.std::__cxx11::basic_string", align 8
  %.not = icmp eq ptr %6, null
  br i1 %.not, label %25, label %10

10:                                               ; preds = %7
  call void @_ZNSt7__cxx1112basic_stringIcSt11char_traitsIcESaIcEEC1Ev(ptr noundef nonnull align 8 dereferenceable(32) %8) #17
  %11 = call i32 (ptr, i64, ptr, ...) @snprintf(ptr noundef null, i64 noundef 0, ptr noundef nonnull @.str.14, ptr noundef nonnull @.str.15) #17
  %12 = add nsw i32 %11, 1
  %13 = sext i32 %12 to i64
  invoke void @_ZNSt7__cxx1112basic_stringIcSt11char_traitsIcESaIcEE6resizeEm(ptr noundef nonnull align 8 dereferenceable(32) %8, i64 noundef %13)
          to label %14 unwind label %21

14:                                               ; preds = %10
  %15 = invoke noundef nonnull align 1 dereferenceable(1) ptr @_ZNSt7__cxx1112basic_stringIcSt11char_traitsIcESaIcEEixEm(ptr noundef nonnull align 8 dereferenceable(32) %8, i64 noundef 0)
          to label %16 unwind label %21

16:                                               ; preds = %14
  %17 = call noundef i64 @_ZNKSt7__cxx1112basic_stringIcSt11char_traitsIcESaIcEE4sizeEv(ptr noundef nonnull align 8 dereferenceable(32) %8) #17
  %18 = call i32 (ptr, i64, ptr, ...) @snprintf(ptr noundef nonnull %15, i64 noundef %17, ptr noundef nonnull @.str.14, ptr noundef nonnull @.str.15) #17
  %19 = call ptr @__cxa_allocate_exception(i64 40) #17
  invoke void @_ZN5faiss14FaissExceptionC1ERKNSt7__cxx1112basic_stringIcSt11char_traitsIcESaIcEEEPKcSA_i(ptr noundef nonnull align 8 dereferenceable(40) %19, ptr noundef nonnull align 8 dereferenceable(32) %8, ptr noundef nonnull @__PRETTY_FUNCTION__._ZNK5faiss13IndexFastScan6searchElPKflPfPlPKNS_16SearchParametersE, ptr noundef nonnull @.str.2, i32 noundef 265)
          to label %20 unwind label %23

20:                                               ; preds = %16
  invoke void @__cxa_throw(ptr nonnull %19, ptr nonnull @_ZTIN5faiss14FaissExceptionE, ptr nonnull @_ZN5faiss14FaissExceptionD2Ev) #25
          to label %50 unwind label %21

21:                                               ; preds = %20, %14, %10
  %22 = landingpad { ptr, i32 }
          cleanup
  br label %49

23:                                               ; preds = %16
  %24 = landingpad { ptr, i32 }
          cleanup
  call void @__cxa_free_exception(ptr %19) #17
  br label %49

25:                                               ; preds = %7
  %26 = icmp sgt i64 %3, 0
  br i1 %26, label %42, label %27

27:                                               ; preds = %25
  call void @_ZNSt7__cxx1112basic_stringIcSt11char_traitsIcESaIcEEC1Ev(ptr noundef nonnull align 8 dereferenceable(32) %9) #17
  %28 = call i32 (ptr, i64, ptr, ...) @snprintf(ptr noundef null, i64 noundef 0, ptr noundef nonnull @.str, ptr noundef nonnull @.str.16) #17
  %29 = add nsw i32 %28, 1
  %30 = sext i32 %29 to i64
  invoke void @_ZNSt7__cxx1112basic_stringIcSt11char_traitsIcESaIcEE6resizeEm(ptr noundef nonnull align 8 dereferenceable(32) %9, i64 noundef %30)
          to label %31 unwind label %38

31:                                               ; preds = %27
  %32 = invoke noundef nonnull align 1 dereferenceable(1) ptr @_ZNSt7__cxx1112basic_stringIcSt11char_traitsIcESaIcEEixEm(ptr noundef nonnull align 8 dereferenceable(32) %9, i64 noundef 0)
          to label %33 unwind label %38

33:                                               ; preds = %31
  %34 = call noundef i64 @_ZNKSt7__cxx1112basic_stringIcSt11char_traitsIcESaIcEE4sizeEv(ptr noundef nonnull align 8 dereferenceable(32) %9) #17
  %35 = call i32 (ptr, i64, ptr, ...) @snprintf(ptr noundef nonnull %32, i64 noundef %34, ptr noundef nonnull @.str, ptr noundef nonnull @.str.16) #17
  %36 = call ptr @__cxa_allocate_exception(i64 40) #17
  invoke void @_ZN5faiss14FaissExceptionC1ERKNSt7__cxx1112basic_stringIcSt11char_traitsIcESaIcEEEPKcSA_i(ptr noundef nonnull align 8 dereferenceable(40) %36, ptr noundef nonnull align 8 dereferenceable(32) %9, ptr noundef nonnull @__PRETTY_FUNCTION__._ZNK5faiss13IndexFastScan6searchElPKflPfPlPKNS_16SearchParametersE, ptr noundef nonnull @.str.2, i32 noundef 266)
          to label %37 unwind label %40

37:                                               ; preds = %33
  invoke void @__cxa_throw(ptr nonnull %36, ptr nonnull @_ZTIN5faiss14FaissExceptionE, ptr nonnull @_ZN5faiss14FaissExceptionD2Ev) #25
          to label %50 unwind label %38

38:                                               ; preds = %37, %31, %27
  %39 = landingpad { ptr, i32 }
          cleanup
  br label %49

40:                                               ; preds = %33
  %41 = landingpad { ptr, i32 }
          cleanup
  call void @__cxa_free_exception(ptr %36) #17
  br label %49

42:                                               ; preds = %25
  %43 = getelementptr inbounds i8, ptr %0, i64 28
  %44 = load i32, ptr %43, align 4
  %45 = icmp eq i32 %44, 1
  br i1 %45, label %46, label %47

46:                                               ; preds = %42
  tail call void @_ZNK5faiss13IndexFastScan22search_dispatch_implemILb1EEEvlPKflPfPlPKNS_15NormTableScalerE(ptr noundef nonnull align 8 dereferenceable(136) %0, i64 noundef %1, ptr noundef %2, i64 noundef %3, ptr noundef %4, ptr noundef %5, ptr noundef null)
  br label %48

47:                                               ; preds = %42
  tail call void @_ZNK5faiss13IndexFastScan22search_dispatch_implemILb0EEEvlPKflPfPlPKNS_15NormTableScalerE(ptr noundef nonnull align 8 dereferenceable(136) %0, i64 noundef %1, ptr noundef %2, i64 noundef %3, ptr noundef %4, ptr noundef %5, ptr noundef null)
  br label %48

48:                                               ; preds = %47, %46
  ret void

49:                                               ; preds = %38, %40, %21, %23
  %.sink = phi ptr [ %8, %23 ], [ %8, %21 ], [ %9, %40 ], [ %9, %38 ]
  %.pn21.pn = phi { ptr, i32 } [ %24, %23 ], [ %22, %21 ], [ %41, %40 ], [ %39, %38 ]
  call void @_ZNSt7__cxx1112basic_stringIcSt11char_traitsIcESaIcEED1Ev(ptr noundef nonnull align 8 dereferenceable(32) %.sink) #17
  resume { ptr, i32 } %.pn21.pn

50:                                               ; preds = %37, %20
  unreachable
}